target datalayout = "e-m:e-p270:32:32-p271:32:32-p272:64:64-i64:64-i128:128-f80:128-n8:16:32:64-S128"
target triple = "x86_64-unknown-linux-gnu"

%"class.QuantLib::Date" = type { i64 }

; Function Attrs: mustprogress uwtable
define noundef double @_ZNK8QuantLib4Bond10dirtyPriceEv(ptr noundef nonnull align 8 dereferenceable(248) %this) #2 align 2 {
entry:
  %retval = alloca double, align 8
  %this.addr = alloca ptr, align 8
  %currentNotional = alloca double, align 8
  %agg.tmp = alloca %"class.QuantLib::Date", align 8
  %agg.tmp2 = alloca %"class.QuantLib::Date", align 8
  %cleanup.dest.slot = alloca i32, align 4
  store ptr %this, ptr %this.addr, align 8, !tbaa !3
  %this1 = load ptr, ptr %this.addr, align 8
  call void @llvm.lifetime.start.p0(i64 8, ptr %currentNotional) #17
  call void @_ZN8QuantLib4DateC1Ev(ptr noundef nonnull align 8 dereferenceable(8) %agg.tmp2)
  %coerce.dive = getelementptr inbounds nuw %"class.QuantLib::Date", ptr %agg.tmp2, i32 0, i32 0
  %0 = load i64, ptr %coerce.dive, align 8
  %call = call i64 @_ZNK8QuantLib4Bond14settlementDateENS_4DateE(ptr noundef nonnull align 8 dereferenceable(248) %this1, i64 %0)
  %coerce.dive3 = getelementptr inbounds nuw %"class.QuantLib::Date", ptr %agg.tmp, i32 0, i32 0
  store i64 %call, ptr %coerce.dive3, align 8
  %coerce.dive4 = getelementptr inbounds nuw %"class.QuantLib::Date", ptr %agg.tmp, i32 0, i32 0
  %1 = load i64, ptr %coerce.dive4, align 8
  %vtable = load ptr, ptr %this1, align 8, !tbaa !20
  %vfn = getelementptr inbounds ptr, ptr %vtable, i64 10
  %2 = load ptr, ptr %vfn, align 8
  %call5 = call noundef double %2(ptr noundef nonnull align 8 dereferenceable(248) %this1, i64 %1)
  store double %call5, ptr %currentNotional, align 8, !tbaa !62
  %3 = load double, ptr %currentNotional, align 8, !tbaa !62
  %cmp = fcmp oeq double %3, 0.000000e+00
  br i1 %cmp, label %if.then, label %if.else

if.then:                                          ; preds = %entry
  store double 0.000000e+00, ptr %retval, align 8
  store i32 1, ptr %cleanup.dest.slot, align 4
  br label %cleanup

if.else:                                          ; preds = %entry
  %call6 = call noundef double @_ZNK8QuantLib4Bond15settlementValueEv(ptr noundef nonnull align 8 dereferenceable(248) %this1)
  %mul = fmul double %call6, 1.000000e+02
  %4 = load double, ptr %currentNotional, align 8, !tbaa !62
  %div = fdiv double %mul, %4
  store double %div, ptr %retval, align 8
  store i32 1, ptr %cleanup.dest.slot, align 4
  br label %cleanup

cleanup:                                          ; preds = %if.else, %if.then
  call void @llvm.lifetime.end.p0(i64 8, ptr %currentNotional) #17
  %5 = load double, ptr %retval, align 8
  ret double %5
}