; Function Attrs: mustprogress uwtable
define noundef double @_ZNK8QuantLib4Bond10dirtyPriceEv(ptr noundef nonnull align 8 dereferenceable(248) %this) local_unnamed_addr #9 align 2 {
entry:
  %agg.tmp2 = alloca %"class.QuantLib::Date", align 8
  call void @_ZN8QuantLib4DateC1Ev(ptr noundef nonnull align 8 dereferenceable(8) %agg.tmp2)
  %0 = load i64, ptr %agg.tmp2, align 8
  %call = call i64 @_ZNK8QuantLib4Bond14settlementDateENS_4DateE(ptr noundef nonnull align 8 dereferenceable(248) %this, i64 %0)
  %vtable = load ptr, ptr %this, align 8, !tbaa !33
  %vfn = getelementptr inbounds i8, ptr %vtable, i64 80
  %1 = load ptr, ptr %vfn, align 8
  %call5 = call noundef double %1(ptr noundef nonnull align 8 dereferenceable(248) %this, i64 %call)
  %cmp = fcmp oeq double %call5, 0.000000e+00
  br i1 %cmp, label %cleanup, label %if.else

if.else:                                          ; preds = %entry
  %call6 = call noundef double @_ZNK8QuantLib4Bond15settlementValueEv(ptr noundef nonnull align 8 dereferenceable(248) %this)
  %mul = fmul double %call6, 1.000000e+02
  %div = fdiv double %mul, %call5
  br label %cleanup

cleanup:                                          ; preds = %entry, %if.else
  %retval.0 = phi double [ %div, %if.else ], [ 0.000000e+00, %entry ]
  ret double %retval.0
}